; Function Attrs: mustprogress nounwind uwtable
define hidden void @_ZN14ShenandoahHeap18labs_make_parsableEv(ptr nocapture noundef nonnull readonly align 8 dereferenceable(2657) %0) local_unnamed_addr #1 align 2 {
  %2 = alloca %class.ShenandoahRetireGCLABClosure, align 8
  %3 = alloca %class.JavaThreadIteratorWithHandle, align 8
  store ptr getelementptr inbounds inrange(-16, 8) (i8, ptr @_ZTV28ShenandoahRetireGCLABClosure, i64 16), ptr %2, align 8
  %4 = getelementptr inbounds i8, ptr %2, i64 8
  store i8 0, ptr %4, align 8
  %5 = getelementptr inbounds i8, ptr %3, i64 8
  %6 = tail call align 8 ptr @llvm.threadlocal.address.p0(ptr align 8 @_ZN6Thread12_thr_currentE)
  %7 = load ptr, ptr %6, align 8
  call void @_ZN17ThreadsListHandleC1EP6Thread(ptr noundef nonnull align 8 dereferenceable(56) %5, ptr noundef %7) #26
  %8 = getelementptr inbounds i8, ptr %3, i64 64
  store i32 0, ptr %8, align 8
  %9 = getelementptr inbounds i8, ptr %3, i64 24
  %10 = load ptr, ptr %9, align 8
  %11 = getelementptr inbounds i8, ptr %10, i64 4
  %12 = load i32, ptr %11, align 4
  %.not.i8.not = icmp eq i32 %12, 0
  br i1 %.not.i8.not, label %_ZN28JavaThreadIteratorWithHandle4nextEv.exit.thread, label %_ZN28JavaThreadIteratorWithHandle4nextEv.exit

_ZN28JavaThreadIteratorWithHandle4nextEv.exit:    ; preds = %1, %_ZN28ShenandoahRetireGCLABClosure9do_threadEP6Thread.exit
  %13 = phi ptr [ %27, %_ZN28ShenandoahRetireGCLABClosure9do_threadEP6Thread.exit ], [ %10, %1 ]
  %14 = phi i32 [ %26, %_ZN28ShenandoahRetireGCLABClosure9do_threadEP6Thread.exit ], [ 0, %1 ]
  %15 = add nuw i32 %14, 1
  store i32 %15, ptr %8, align 8
  %16 = getelementptr inbounds i8, ptr %13, i64 16
  %17 = load ptr, ptr %16, align 8
  %18 = zext i32 %14 to i64
  %19 = getelementptr inbounds ptr, ptr %17, i64 %18
  %20 = load ptr, ptr %19, align 8
  %.not = icmp eq ptr %20, null
  br i1 %.not, label %_ZN28JavaThreadIteratorWithHandle4nextEv.exit.thread, label %_ZN28ShenandoahRetireGCLABClosure9do_threadEP6Thread.exit

_ZN28JavaThreadIteratorWithHandle4nextEv.exit.thread: ; preds = %_ZN28JavaThreadIteratorWithHandle4nextEv.exit, %_ZN28ShenandoahRetireGCLABClosure9do_threadEP6Thread.exit, %1
  call void @_ZN17ThreadsListHandleD1Ev(ptr noundef nonnull align 8 dereferenceable(56) %5) #26
  %21 = getelementptr inbounds i8, ptr %0, i64 504
  %22 = load ptr, ptr %21, align 8
  call void @_ZNK13WorkerThreads10threads_doEP13ThreadClosure(ptr noundef nonnull align 8 dereferenceable(120) %22, ptr noundef nonnull %2) #26
  ret void

_ZN28ShenandoahRetireGCLABClosure9do_threadEP6Thread.exit: ; preds = %_ZN28JavaThreadIteratorWithHandle4nextEv.exit
  %23 = getelementptr inbounds i8, ptr %20, i64 432
  call void @_ZN22ThreadLocalAllocBuffer13make_parsableEv(ptr noundef nonnull align 8 dereferenceable(116) %23) #26
  %24 = getelementptr inbounds i8, ptr %20, i64 72
  %25 = load ptr, ptr %24, align 8
  call void @_ZN4PLAB6retireEv(ptr noundef nonnull align 8 dereferenceable(128) %25) #26
  %26 = load i32, ptr %8, align 8
  %27 = load ptr, ptr %9, align 8
  %28 = getelementptr inbounds i8, ptr %27, i64 4
  %29 = load i32, ptr %28, align 4
  %.not.i = icmp ult i32 %26, %29
  br i1 %.not.i, label %_ZN28JavaThreadIteratorWithHandle4nextEv.exit, label %_ZN28JavaThreadIteratorWithHandle4nextEv.exit.thread, !llvm.loop !41
}